target datalayout = "e-m:e-p270:32:32-p271:32:32-p272:64:64-i64:64-i128:128-f80:128-n8:16:32:64-S128"
target triple = "x86_64-pc-linux-gnu"

%struct._address = type { i32, i32, ptr, ptr }
%struct._packet_info = type { ptr, ptr, i32, i32, %struct.nstime_t, %struct.nstime_t, %struct.nstime_t, i8, ptr, ptr, ptr, ptr, %struct._address, %struct._address, %struct._address, %struct._address, %struct._address, %struct._address, i32, ptr, i8, [3 x i8], %struct.anon, i32, i32, i32, i32, ptr, i8, ptr, ptr, i16, i16, i32, i32, i16, i32, i32, ptr, ptr, ptr, i8, i8, i16, i16, i16, i32, i16, i16, ptr, ptr, ptr, ptr, ptr, i32, i32 }
%struct.nstime_t = type { i64, i32 }
%struct.anon = type { i8, [3 x i8] }
%struct._frame_data = type <{ i32, i32, i32, i32, i32, [4 x i8], i64, ptr, ptr, ptr, i8, i16, [5 x i8], %struct.nstime_t, %struct.nstime_t, i32, i32 }>
%struct.conversation = type { ptr, ptr, ptr, i32, i32, i32, ptr, ptr, i32, ptr }

@osmux_handle = internal global ptr null, align 8

; Function Attrs: inlinehint nounwind null_pointer_is_valid sspstrong uwtable
define internal void @clear_address(ptr noundef %0) #2 {
  %2 = alloca ptr, align 8
  store ptr %0, ptr %2, align 8
  %3 = load ptr, ptr %2, align 8
  %4 = getelementptr inbounds nuw %struct._address, ptr %3, i32 0, i32 0
  store i32 0, ptr %4, align 8
  %5 = load ptr, ptr %2, align 8
  %6 = getelementptr inbounds nuw %struct._address, ptr %5, i32 0, i32 1
  store i32 0, ptr %6, align 4
  %7 = load ptr, ptr %2, align 8
  %8 = getelementptr inbounds nuw %struct._address, ptr %7, i32 0, i32 2
  store ptr null, ptr %8, align 8
  %9 = load ptr, ptr %2, align 8
  %10 = getelementptr inbounds nuw %struct._address, ptr %9, i32 0, i32 3
  store ptr null, ptr %10, align 8
  ret void
}

; Function Attrs: null_pointer_is_valid sspstrong uwtable
define hidden void @osmux_add_address(ptr noundef %0, ptr noundef %1, i32 noundef %2, i32 noundef %3, i32 noundef %4) #0 {
  %6 = alloca ptr, align 8
  %7 = alloca ptr, align 8
  %8 = alloca i32, align 4
  %9 = alloca i32, align 4
  %10 = alloca i32, align 4
  %11 = alloca %struct._address, align 8
  %12 = alloca ptr, align 8
  %13 = alloca i32, align 4
  store ptr %0, ptr %6, align 8
  store ptr %1, ptr %7, align 8
  store i32 %2, ptr %8, align 4
  store i32 %3, ptr %9, align 4
  store i32 %4, ptr %10, align 4
  call void @llvm.lifetime.start.p0(i64 24, ptr %11) #13
  call void @llvm.lifetime.start.p0(i64 8, ptr %12) #13
  %14 = load ptr, ptr %6, align 8
  %15 = getelementptr inbounds nuw %struct._packet_info, ptr %14, i32 0, i32 8
  %16 = load ptr, ptr %15, align 8
  %17 = getelementptr inbounds nuw %struct._frame_data, ptr %16, i32 0, i32 11
  %18 = load i16, ptr %17, align 1
  %19 = lshr i16 %18, 3
  %20 = and i16 %19, 1
  %21 = zext i16 %20 to i32
  %22 = icmp ne i32 %21, 0
  br i1 %22, label %23, label %24

23:                                               ; preds = %5
  store i32 1, ptr %13, align 4
  br label %57

24:                                               ; preds = %5
  call void @clear_address(ptr noundef %11)
  %25 = load i32, ptr %10, align 4
  %26 = load ptr, ptr %7, align 8
  %27 = load i32, ptr %8, align 4
  %28 = load i32, ptr %9, align 4
  %29 = load i32, ptr %9, align 4
  %30 = icmp ne i32 %29, 0
  %31 = xor i1 %30, true
  %32 = select i1 %31, i32 131072, i32 0
  %33 = or i32 65536, %32
  %34 = call ptr @find_conversation(i32 noundef %25, ptr noundef %26, ptr noundef %11, i32 noundef 3, i32 noundef %27, i32 noundef %28, i32 noundef %33)
  store ptr %34, ptr %12, align 8
  %35 = load ptr, ptr %12, align 8
  %36 = icmp ne ptr %35, null
  br i1 %36, label %37, label %43

37:                                               ; preds = %24
  %38 = load ptr, ptr %12, align 8
  %39 = getelementptr inbounds nuw %struct.conversation, ptr %38, i32 0, i32 4
  %40 = load i32, ptr %39, align 4
  %41 = load i32, ptr %10, align 4
  %42 = icmp ne i32 %40, %41
  br i1 %42, label %43, label %54

43:                                               ; preds = %37, %24
  %44 = load i32, ptr %10, align 4
  %45 = load ptr, ptr %7, align 8
  %46 = load i32, ptr %8, align 4
  %47 = load i32, ptr %9, align 4
  %48 = load i32, ptr %9, align 4
  %49 = icmp ne i32 %48, 0
  %50 = xor i1 %49, true
  %51 = select i1 %50, i32 2, i32 0
  %52 = or i32 1, %51
  %53 = call ptr @conversation_new(i32 noundef %44, ptr noundef %45, ptr noundef %11, i32 noundef 3, i32 noundef %46, i32 noundef %47, i32 noundef %52)
  store ptr %53, ptr %12, align 8
  br label %54

54:                                               ; preds = %43, %37
  %55 = load ptr, ptr %12, align 8
  %56 = load ptr, ptr @osmux_handle, align 8
  call void @conversation_set_dissector(ptr noundef %55, ptr noundef %56)
  store i32 0, ptr %13, align 4
  br label %57

57:                                               ; preds = %54, %23
  call void @llvm.lifetime.end.p0(i64 8, ptr %12) #13
  call void @llvm.lifetime.end.p0(i64 24, ptr %11) #13
  %58 = load i32, ptr %13, align 4
  switch i32 %58, label %60 [
    i32 0, label %59
    i32 1, label %59
  ]

59:                                               ; preds = %57, %57
  ret void

60:                                               ; preds = %57
  unreachable
}