; Function Attrs: null_pointer_is_valid sspstrong uwtable
define hidden void @osmux_add_address(ptr noundef readonly captures(none) %0, ptr noundef %1, i32 noundef %2, i32 noundef %3, i32 noundef %4) local_unnamed_addr #0 {
  %6 = alloca %struct._address, align 8
  call void @llvm.lifetime.start.p0(i64 24, ptr nonnull %6) #12
  %7 = getelementptr inbounds nuw i8, ptr %0, i64 80
  %8 = load ptr, ptr %7, align 8
  %9 = getelementptr inbounds nuw i8, ptr %8, i64 57
  %10 = load i16, ptr %9, align 1
  %11 = and i16 %10, 8
  %.not = icmp eq i16 %11, 0
  br i1 %.not, label %12, label %23

12:                                               ; preds = %5
  call void @llvm.memset.p0.i64(ptr noundef nonnull align 8 dereferenceable(24) %6, i8 0, i64 24, i1 false)
  %.not15 = icmp eq i32 %3, 0
  %13 = select i1 %.not15, i32 196608, i32 65536
  %14 = call ptr @find_conversation(i32 noundef %4, ptr noundef %1, ptr noundef nonnull %6, i32 noundef 3, i32 noundef %2, i32 noundef %3, i32 noundef %13)
  %.not16 = icmp eq ptr %14, null
  br i1 %.not16, label %18, label %15

15:                                               ; preds = %12
  %16 = getelementptr inbounds nuw i8, ptr %14, i64 28
  %17 = load i32, ptr %16, align 4
  %.not17 = icmp eq i32 %17, %4
  br i1 %.not17, label %21, label %18

18:                                               ; preds = %15, %12
  %19 = select i1 %.not15, i32 3, i32 1
  %20 = call ptr @conversation_new(i32 noundef %4, ptr noundef %1, ptr noundef nonnull %6, i32 noundef 3, i32 noundef %2, i32 noundef %3, i32 noundef %19)
  br label %21

21:                                               ; preds = %18, %15
  %.0 = phi ptr [ %20, %18 ], [ %14, %15 ]
  %22 = load ptr, ptr @osmux_handle, align 8
  call void @conversation_set_dissector(ptr noundef %.0, ptr noundef %22)
  br label %23

23:                                               ; preds = %5, %21
  call void @llvm.lifetime.end.p0(i64 24, ptr nonnull %6) #12
  ret void
}